target datalayout = "e-m:e-p270:32:32-p271:32:32-p272:64:64-i64:64-i128:128-f80:128-n8:16:32:64-S128"
target triple = "x86_64-unknown-linux-gnu"

%"class.absl::Mutex" = type { %"struct.std::atomic" }
%"struct.std::atomic" = type { %"struct.std::__atomic_base" }
%"struct.std::__atomic_base" = type { i64 }
%"class.absl::CondVar" = type { %"struct.std::atomic" }
%"struct.(anonymous namespace)::TestContext" = type { i32, i32, i32, i32, %"class.absl::Mutex", %"class.absl::CondVar" }

; Function Attrs: noreturn nounwind uwtable
define linkonce_odr hidden void @__clang_call_terminate(ptr noundef %0) #9 comdat {
  %2 = call ptr @__cxa_begin_catch(ptr %0) #3
  call void @_ZSt9terminatev() #27
  unreachable
}

; Function Attrs: mustprogress nounwind uwtable
define internal noundef i32 @_ZL15__gthread_yieldv() #7 {
entry:
  %call = call i32 @sched_yield() #3
  ret i32 %call
}

; Function Attrs: mustprogress nounwind uwtable
define linkonce_odr dso_local void @_ZNSt11this_thread5yieldEv() #7 comdat personality ptr @__gxx_personality_v0 {
entry:
  %call = invoke noundef i32 @_ZL15__gthread_yieldv()
          to label %invoke.cont unwind label %terminate.lpad

invoke.cont:                                      ; preds = %entry
  ret void

terminate.lpad:                                   ; preds = %entry
  %0 = landingpad { ptr, i32 }
          catch ptr null
  %1 = extractvalue { ptr, i32 } %0, 0
  call void @__clang_call_terminate(ptr %1) #27
  unreachable
}

; Function Attrs: mustprogress uwtable
define internal void @_ZN12_GLOBAL__N_17TestTryEPNS_11TestContextEi(ptr noundef %cxt, i32 noundef %c) #4 {
entry:
  %cxt.addr = alloca ptr, align 8
  %c.addr = alloca i32, align 4
  %i = alloca i32, align 4
  %a = alloca i32, align 4
  store ptr %cxt, ptr %cxt.addr, align 8
  store i32 %c, ptr %c.addr, align 4
  store i32 0, ptr %i, align 4
  br label %for.cond

for.cond:                                         ; preds = %for.inc, %entry
  %0 = load i32, ptr %i, align 4
  %1 = load ptr, ptr %cxt.addr, align 8
  %iterations = getelementptr inbounds %"struct.(anonymous namespace)::TestContext", ptr %1, i32 0, i32 0
  %2 = load i32, ptr %iterations, align 8
  %cmp = icmp ne i32 %0, %2
  br i1 %cmp, label %for.body, label %for.end

for.body:                                         ; preds = %for.cond
  br label %do.body

do.body:                                          ; preds = %do.cond, %for.body
  call void @_ZNSt11this_thread5yieldEv() #3
  br label %do.cond

do.cond:                                          ; preds = %do.body
  %3 = load ptr, ptr %cxt.addr, align 8
  %mu = getelementptr inbounds %"struct.(anonymous namespace)::TestContext", ptr %3, i32 0, i32 4
  %call = call noundef zeroext i1 @_ZN4absl5Mutex7TryLockEv(ptr noundef nonnull align 8 dereferenceable(8) %mu)
  %lnot = xor i1 %call, true
  br i1 %lnot, label %do.body, label %do.end, !llvm.loop !47

do.end:                                           ; preds = %do.cond
  %4 = load ptr, ptr %cxt.addr, align 8
  %g0 = getelementptr inbounds %"struct.(anonymous namespace)::TestContext", ptr %4, i32 0, i32 2
  %5 = load i32, ptr %g0, align 8
  %add = add nsw i32 %5, 1
  store i32 %add, ptr %a, align 4
  %6 = load i32, ptr %a, align 4
  %7 = load ptr, ptr %cxt.addr, align 8
  %g01 = getelementptr inbounds %"struct.(anonymous namespace)::TestContext", ptr %7, i32 0, i32 2
  store i32 %6, ptr %g01, align 8
  %8 = load ptr, ptr %cxt.addr, align 8
  %g1 = getelementptr inbounds %"struct.(anonymous namespace)::TestContext", ptr %8, i32 0, i32 3
  %9 = load i32, ptr %g1, align 4
  %dec = add nsw i32 %9, -1
  store i32 %dec, ptr %g1, align 4
  %10 = load ptr, ptr %cxt.addr, align 8
  %mu2 = getelementptr inbounds %"struct.(anonymous namespace)::TestContext", ptr %10, i32 0, i32 4
  call void @_ZN4absl5Mutex6UnlockEv(ptr noundef nonnull align 8 dereferenceable(8) %mu2)
  br label %for.inc

for.inc:                                          ; preds = %do.end
  %11 = load i32, ptr %i, align 4
  %inc = add nsw i32 %11, 1
  store i32 %inc, ptr %i, align 4
  br label %for.cond, !llvm.loop !48

for.end:                                          ; preds = %for.cond
  ret void
}