; Function Attrs: mustprogress uwtable
define internal void @_ZN12_GLOBAL__N_17TestTryEPNS_11TestContextEi(ptr noundef %cxt, i32 %c) #3 personality ptr @__gxx_personality_v0 {
entry:
  %0 = load i32, ptr %cxt, align 8
  %cmp.not7 = icmp eq i32 %0, 0
  br i1 %cmp.not7, label %for.end, label %do.body.preheader.lr.ph

do.body.preheader.lr.ph:                          ; preds = %entry
  %mu = getelementptr inbounds i8, ptr %cxt, i64 16
  %g0 = getelementptr inbounds i8, ptr %cxt, i64 8
  br label %do.body.preheader

do.body.preheader:                                ; preds = %do.body.preheader.lr.ph, %do.end
  %i.08 = phi i32 [ 0, %do.body.preheader.lr.ph ], [ %inc, %do.end ]
  br label %do.body

do.body:                                          ; preds = %do.body.preheader, %do.body
  %call.i.i = tail call noundef i32 @sched_yield() #34
  %call = tail call noundef zeroext i1 @_ZN4absl5Mutex7TryLockEv(ptr noundef nonnull align 8 dereferenceable(8) %mu)
  br i1 %call, label %do.end, label %do.body, !llvm.loop !326

do.end:                                           ; preds = %do.body
  %1 = load <2 x i32>, ptr %g0, align 8
  %2 = add nsw <2 x i32> %1, <i32 1, i32 -1>
  store <2 x i32> %2, ptr %g0, align 8
  tail call void @_ZN4absl5Mutex6UnlockEv(ptr noundef nonnull align 8 dereferenceable(8) %mu)
  %inc = add nuw nsw i32 %i.08, 1
  %3 = load i32, ptr %cxt, align 8
  %cmp.not = icmp eq i32 %inc, %3
  br i1 %cmp.not, label %for.end, label %do.body.preheader, !llvm.loop !327

for.end:                                          ; preds = %do.end, %entry
  ret void
}